target datalayout = "e-m:e-p270:32:32-p271:32:32-p272:64:64-i64:64-i128:128-f80:128-n8:16:32:64-S128"
target triple = "x86_64-pc-linux-gnu"

%struct.Scheduler = type { ptr, ptr, i32, ptr, i32, i32, %union.pthread_mutex_t, i32, i32, %union.pthread_mutex_t, %union.pthread_cond_t, ptr, i32, ptr, i32, ptr, i32, ptr, i32, ptr, i32, i32, i32, %union.pthread_mutex_t, i64 }
%union.pthread_cond_t = type { %struct.__pthread_cond_s }
%struct.__pthread_cond_s = type { %union.__atomic_wide_counter, %union.__atomic_wide_counter, [2 x i32], [2 x i32], i32, i32, [2 x i32] }
%union.__atomic_wide_counter = type { i64 }
%union.pthread_mutex_t = type { %struct.__pthread_mutex_s }
%struct.__pthread_mutex_s = type { i32, i32, i32, i32, i32, i16, i16, %struct.__pthread_internal_list }
%struct.__pthread_internal_list = type { ptr, ptr }
%struct.SchDemux = type { ptr, ptr, i32, %struct.SchTask, %struct.SchWaiter, ptr, i32 }
%struct.SchTask = type { ptr, %struct.SchedulerNode, ptr, ptr, i64, i32 }
%struct.SchedulerNode = type { i32, i32, i32 }
%struct.SchWaiter = type { %union.pthread_mutex_t, %union.pthread_cond_t, i32, i32, i32 }

@.str = private unnamed_addr constant [30 x i8] c"Assertion %s failed at %s:%d\0A\00", align 1
@.str.2 = private unnamed_addr constant [23 x i8] c"fftools/ffmpeg_sched.c\00", align 1
@.str.3 = private unnamed_addr constant [26 x i8] c"demux_idx < sch->nb_demux\00", align 1

; Function Attrs: nounwind uwtable
define i32 @sch_add_demux_stream(ptr noundef %0, i32 noundef %1) #0 {
  %3 = alloca ptr, align 8
  %4 = alloca i32, align 4
  %5 = alloca ptr, align 8
  %6 = alloca i32, align 4
  store ptr %0, ptr %3, align 8, !tbaa !10
  store i32 %1, ptr %4, align 4, !tbaa !12
  call void @llvm.lifetime.start.p0(i64 8, ptr %5) #9
  call void @llvm.lifetime.start.p0(i64 4, ptr %6) #9
  br label %7

7:                                                ; preds = %2
  %8 = load i32, ptr %4, align 4, !tbaa !12
  %9 = load ptr, ptr %3, align 8, !tbaa !10
  %10 = getelementptr inbounds nuw %struct.Scheduler, ptr %9, i32 0, i32 2
  %11 = load i32, ptr %10, align 8, !tbaa !14
  %12 = icmp ult i32 %8, %11
  br i1 %12, label %14, label %13

13:                                               ; preds = %7
  call void (ptr, i32, ptr, ...) @av_log(ptr noundef null, i32 noundef 0, ptr noundef @.str, ptr noundef @.str.3, ptr noundef @.str.2, i32 noundef 712)
  call void @abort() #10
  unreachable

14:                                               ; preds = %7
  br label %15

15:                                               ; preds = %14
  br label %16

16:                                               ; preds = %15
  %17 = load ptr, ptr %3, align 8, !tbaa !10
  %18 = getelementptr inbounds nuw %struct.Scheduler, ptr %17, i32 0, i32 1
  %19 = load ptr, ptr %18, align 8, !tbaa !24
  %20 = load i32, ptr %4, align 4, !tbaa !12
  %21 = zext i32 %20 to i64
  %22 = getelementptr inbounds nuw %struct.SchDemux, ptr %19, i64 %21
  store ptr %22, ptr %5, align 8, !tbaa !25
  %23 = load ptr, ptr %5, align 8, !tbaa !25
  %24 = getelementptr inbounds nuw %struct.SchDemux, ptr %23, i32 0, i32 1
  %25 = load ptr, ptr %5, align 8, !tbaa !25
  %26 = getelementptr inbounds nuw %struct.SchDemux, ptr %25, i32 0, i32 2
  %27 = load ptr, ptr %5, align 8, !tbaa !25
  %28 = getelementptr inbounds nuw %struct.SchDemux, ptr %27, i32 0, i32 2
  %29 = load i32, ptr %28, align 8, !tbaa !26
  %30 = add i32 %29, 1
  %31 = call i32 @grow_array(ptr noundef %24, i32 noundef 24, ptr noundef %26, i32 noundef %30)
  store i32 %31, ptr %6, align 4, !tbaa !12
  %32 = load i32, ptr %6, align 4, !tbaa !12
  %33 = icmp slt i32 %32, 0
  br i1 %33, label %34, label %36

34:                                               ; preds = %16
  %35 = load i32, ptr %6, align 4, !tbaa !12
  br label %41

36:                                               ; preds = %16
  %37 = load ptr, ptr %5, align 8, !tbaa !25
  %38 = getelementptr inbounds nuw %struct.SchDemux, ptr %37, i32 0, i32 2
  %39 = load i32, ptr %38, align 8, !tbaa !26
  %40 = sub i32 %39, 1
  br label %41

41:                                               ; preds = %36, %34
  %42 = phi i32 [ %35, %34 ], [ %40, %36 ]
  call void @llvm.lifetime.end.p0(i64 4, ptr %6) #9
  call void @llvm.lifetime.end.p0(i64 8, ptr %5) #9
  ret i32 %42
}