; Function Attrs: nounwind uwtable
define i32 @sch_add_demux_stream(ptr noundef readonly captures(none) %0, i32 noundef %1) local_unnamed_addr #0 {
  %3 = getelementptr inbounds nuw i8, ptr %0, i64 16
  %4 = load i32, ptr %3, align 8, !tbaa !9
  %5 = icmp ult i32 %1, %4
  br i1 %5, label %7, label %6

6:                                                ; preds = %2
  tail call void (ptr, i32, ptr, ...) @av_log(ptr noundef null, i32 noundef 0, ptr noundef nonnull @.str, ptr noundef nonnull @.str.3, ptr noundef nonnull @.str.2, i32 noundef 712) #9
  tail call void @abort() #10
  unreachable

7:                                                ; preds = %2
  %8 = getelementptr inbounds nuw i8, ptr %0, i64 8
  %9 = load ptr, ptr %8, align 8, !tbaa !21
  %10 = zext i32 %1 to i64
  %11 = getelementptr inbounds nuw %struct.SchDemux, ptr %9, i64 %10
  %12 = getelementptr inbounds nuw i8, ptr %11, i64 8
  %13 = getelementptr inbounds nuw i8, ptr %11, i64 16
  %14 = load i32, ptr %13, align 8, !tbaa !22
  %15 = add i32 %14, 1
  %16 = tail call i32 @grow_array(ptr noundef nonnull %12, i32 noundef 24, ptr noundef nonnull %13, i32 noundef %15) #9
  %17 = icmp slt i32 %16, 0
  br i1 %17, label %21, label %18

18:                                               ; preds = %7
  %19 = load i32, ptr %13, align 8, !tbaa !22
  %20 = add i32 %19, -1
  br label %21

21:                                               ; preds = %7, %18
  %22 = phi i32 [ %20, %18 ], [ %16, %7 ]
  ret i32 %22
}